ccopy_reg
_reconstructor
p0
(cgoogle.oauth2.credentials
Credentials
p1
c__builtin__
object
p2
Ntp3
Rp4
(dp5
S'_token_uri'
p6
Vhttps://oauth2.googleapis.com/token
p7
sS'_scopes'
p8
(lp9
S'https://www.googleapis.com/auth/calendar'
p10
asS'_id_token'
p11
NsS'token'
p12
Vya29.GluXBlSnFvFfNL_QAjZdm1aOaZkVtpIHJLUfb1YtCEqE668MkoWLirDpf3JFiuEo-oXM2fbE7hHWCMu92VjxYPcY6RGZDzj7HV_Wsi5kEZILtwjfqHrshzLPM8Ni
p13
sS'_refresh_token'
p14
V1/CEcpDirYu1OBsJle94hKoqrR7kUek-kdVfB9doH73BQ
p15
sS'_client_secret'
p16
V7CQCwIWJzPrZVcQyjPUTzM5T
p17
sS'_client_id'
p18
V504645020871-ds6uklj0509u4m6q72djmhfbqkbirs7s.apps.googleusercontent.com
p19
sS'expiry'
p20
cdatetime
datetime
p21
(S'\x07\xe3\x01\x14\x03\x04\x1b\x01\xe9a'
p22
tp23
Rp24
sb.